target datalayout = "e-m:e-p270:32:32-p271:32:32-p272:64:64-i64:64-i128:128-f80:128-n8:16:32:64-S128"
target triple = "x86_64-pc-linux-gnu"

%struct.mbedtls_mpi = type { i32, i64, ptr }

; Function Attrs: mustprogress uwtable
define hidden i32 @mbedtls_rsa_deduce_private_exponent(ptr noundef %0, ptr noundef %1, ptr noundef %2, ptr noundef %3) #0 {
  %5 = alloca i32, align 4
  %6 = alloca ptr, align 8
  %7 = alloca ptr, align 8
  %8 = alloca ptr, align 8
  %9 = alloca ptr, align 8
  %10 = alloca i32, align 4
  %11 = alloca %struct.mbedtls_mpi, align 8
  %12 = alloca %struct.mbedtls_mpi, align 8
  %13 = alloca i32, align 4
  store ptr %0, ptr %6, align 8, !tbaa !3
  store ptr %1, ptr %7, align 8, !tbaa !3
  store ptr %2, ptr %8, align 8, !tbaa !3
  store ptr %3, ptr %9, align 8, !tbaa !3
  call void @llvm.lifetime.start.p0(i64 4, ptr %10) #4
  store i32 0, ptr %10, align 4, !tbaa !8
  call void @llvm.lifetime.start.p0(i64 24, ptr %11) #4
  call void @llvm.lifetime.start.p0(i64 24, ptr %12) #4
  %14 = load ptr, ptr %9, align 8, !tbaa !3
  %15 = icmp eq ptr %14, null
  br i1 %15, label %20, label %16

16:                                               ; preds = %4
  %17 = load ptr, ptr %9, align 8, !tbaa !3
  %18 = call i32 @mbedtls_mpi_cmp_int(ptr noundef %17, i64 noundef 0)
  %19 = icmp ne i32 %18, 0
  br i1 %19, label %20, label %21

20:                                               ; preds = %16, %4
  store i32 -4, ptr %5, align 4
  store i32 1, ptr %13, align 4
  br label %85

21:                                               ; preds = %16
  %22 = load ptr, ptr %6, align 8, !tbaa !3
  %23 = call i32 @mbedtls_mpi_cmp_int(ptr noundef %22, i64 noundef 1)
  %24 = icmp sle i32 %23, 0
  br i1 %24, label %33, label %25

25:                                               ; preds = %21
  %26 = load ptr, ptr %7, align 8, !tbaa !3
  %27 = call i32 @mbedtls_mpi_cmp_int(ptr noundef %26, i64 noundef 1)
  %28 = icmp sle i32 %27, 0
  br i1 %28, label %33, label %29

29:                                               ; preds = %25
  %30 = load ptr, ptr %8, align 8, !tbaa !3
  %31 = call i32 @mbedtls_mpi_cmp_int(ptr noundef %30, i64 noundef 0)
  %32 = icmp eq i32 %31, 0
  br i1 %32, label %33, label %34

33:                                               ; preds = %29, %25, %21
  store i32 -4, ptr %5, align 4
  store i32 1, ptr %13, align 4
  br label %85

34:                                               ; preds = %29
  call void @mbedtls_mpi_init(ptr noundef %11)
  call void @mbedtls_mpi_init(ptr noundef %12)
  br label %35

35:                                               ; preds = %34
  %36 = load ptr, ptr %6, align 8, !tbaa !3
  %37 = call i32 @mbedtls_mpi_sub_int(ptr noundef %11, ptr noundef %36, i64 noundef 1)
  store i32 %37, ptr %10, align 4, !tbaa !8
  %38 = icmp ne i32 %37, 0
  br i1 %38, label %39, label %40

39:                                               ; preds = %35
  br label %83

40:                                               ; preds = %35
  br label %41

41:                                               ; preds = %40
  br label %42

42:                                               ; preds = %41
  br label %43

43:                                               ; preds = %42
  %44 = load ptr, ptr %7, align 8, !tbaa !3
  %45 = call i32 @mbedtls_mpi_sub_int(ptr noundef %12, ptr noundef %44, i64 noundef 1)
  store i32 %45, ptr %10, align 4, !tbaa !8
  %46 = icmp ne i32 %45, 0
  br i1 %46, label %47, label %48

47:                                               ; preds = %43
  br label %83

48:                                               ; preds = %43
  br label %49

49:                                               ; preds = %48
  br label %50

50:                                               ; preds = %49
  br label %51

51:                                               ; preds = %50
  %52 = load ptr, ptr %9, align 8, !tbaa !3
  %53 = call i32 @mbedtls_mpi_gcd(ptr noundef %52, ptr noundef %11, ptr noundef %12)
  store i32 %53, ptr %10, align 4, !tbaa !8
  %54 = icmp ne i32 %53, 0
  br i1 %54, label %55, label %56

55:                                               ; preds = %51
  br label %83

56:                                               ; preds = %51
  br label %57

57:                                               ; preds = %56
  br label %58

58:                                               ; preds = %57
  br label %59

59:                                               ; preds = %58
  %60 = call i32 @mbedtls_mpi_mul_mpi(ptr noundef %11, ptr noundef %11, ptr noundef %12)
  store i32 %60, ptr %10, align 4, !tbaa !8
  %61 = icmp ne i32 %60, 0
  br i1 %61, label %62, label %63

62:                                               ; preds = %59
  br label %83

63:                                               ; preds = %59
  br label %64

64:                                               ; preds = %63
  br label %65

65:                                               ; preds = %64
  br label %66

66:                                               ; preds = %65
  %67 = load ptr, ptr %9, align 8, !tbaa !3
  %68 = call i32 @mbedtls_mpi_div_mpi(ptr noundef %11, ptr noundef null, ptr noundef %11, ptr noundef %67)
  store i32 %68, ptr %10, align 4, !tbaa !8
  %69 = icmp ne i32 %68, 0
  br i1 %69, label %70, label %71

70:                                               ; preds = %66
  br label %83

71:                                               ; preds = %66
  br label %72

72:                                               ; preds = %71
  br label %73

73:                                               ; preds = %72
  br label %74

74:                                               ; preds = %73
  %75 = load ptr, ptr %9, align 8, !tbaa !3
  %76 = load ptr, ptr %8, align 8, !tbaa !3
  %77 = call i32 @mbedtls_mpi_inv_mod(ptr noundef %75, ptr noundef %76, ptr noundef %11)
  store i32 %77, ptr %10, align 4, !tbaa !8
  %78 = icmp ne i32 %77, 0
  br i1 %78, label %79, label %80

79:                                               ; preds = %74
  br label %83

80:                                               ; preds = %74
  br label %81

81:                                               ; preds = %80
  br label %82

82:                                               ; preds = %81
  br label %83

83:                                               ; preds = %82, %79, %70, %62, %55, %47, %39
  call void @mbedtls_mpi_free(ptr noundef %11)
  call void @mbedtls_mpi_free(ptr noundef %12)
  %84 = load i32, ptr %10, align 4, !tbaa !8
  store i32 %84, ptr %5, align 4
  store i32 1, ptr %13, align 4
  br label %85

85:                                               ; preds = %83, %33, %20
  call void @llvm.lifetime.end.p0(i64 24, ptr %12) #4
  call void @llvm.lifetime.end.p0(i64 24, ptr %11) #4
  call void @llvm.lifetime.end.p0(i64 4, ptr %10) #4
  %86 = load i32, ptr %5, align 4
  ret i32 %86
}